target datalayout = "e-m:e-p270:32:32-p271:32:32-p272:64:64-i64:64-i128:128-f80:128-n8:16:32:64-S128"
target triple = "x86_64-pc-linux-gnu"

%class.btVector3 = type { [4 x float] }
%class.btConeTwistConstraint = type { %class.btTypedConstraint, [3 x %class.btJacobianEntry], %class.btTransform, %class.btTransform, float, float, float, float, float, float, float, float, %class.btVector3, %class.btVector3, float, float, float, float, float, float, float, float, i8, i8, i8, i8, float, float, %class.btVector3, i8, i8, %class.btQuaternion, float, %class.btVector3, i32, float, float, float }
%class.btTypedConstraint = type { ptr, %struct.btTypedObject, i32, %union.anon.0, float, i8, i8, i32, ptr, ptr, float, float, ptr }
%struct.btTypedObject = type { i32 }
%union.anon.0 = type { ptr }
%class.btJacobianEntry = type { %class.btVector3, %class.btVector3, %class.btVector3, %class.btVector3, %class.btVector3, float }
%class.btTransform = type { %class.btMatrix3x3, %class.btVector3 }
%class.btMatrix3x3 = type { [3 x %class.btVector3] }
%class.btQuaternion = type { %class.btQuadWord }
%class.btQuadWord = type { [4 x float] }
%"struct.btTypedConstraint::btConstraintInfo1" = type { i32, i32 }
%class.btCollisionObject = type <{ ptr, %class.btTransform, %class.btTransform, %class.btVector3, %class.btVector3, %class.btVector3, i32, float, ptr, ptr, ptr, ptr, i32, i32, i32, i32, i32, float, float, float, float, float, float, float, i32, [4 x i8], ptr, i32, i32, i32, float, float, float, i32, [4 x i8], %class.btAlignedObjectArray, i32, %class.btVector3, [4 x i8] }>
%class.btAlignedObjectArray = type <{ [4 x i8], i32, i32, [4 x i8], ptr, i8, [7 x i8] }>
%class.btRigidBody = type { %class.btCollisionObject.base, %class.btMatrix3x3, %class.btVector3, %class.btVector3, float, %class.btVector3, %class.btVector3, %class.btVector3, %class.btVector3, %class.btVector3, %class.btVector3, float, float, i8, float, float, float, float, float, float, ptr, %class.btAlignedObjectArray.1, i32, i32, %class.btVector3, %class.btVector3, %class.btVector3, %class.btVector3, %class.btVector3, %class.btVector3, i32, i32 }
%class.btCollisionObject.base = type <{ ptr, %class.btTransform, %class.btTransform, %class.btVector3, %class.btVector3, %class.btVector3, i32, float, ptr, ptr, ptr, ptr, i32, i32, i32, i32, i32, float, float, float, float, float, float, float, i32, [4 x i8], ptr, i32, i32, i32, float, float, float, i32, [4 x i8], %class.btAlignedObjectArray, i32, %class.btVector3 }>
%class.btAlignedObjectArray.1 = type <{ [4 x i8], i32, i32, [4 x i8], ptr, i8, [7 x i8] }>

; Function Attrs: mustprogress nounwind uwtable
define linkonce_odr dso_local noundef nonnull align 4 dereferenceable(48) ptr @_ZNK11btRigidBody24getInvInertiaTensorWorldEv(ptr noundef nonnull align 8 dereferenceable(744) %0) #1 comdat align 2 {
  %2 = alloca ptr, align 8
  store ptr %0, ptr %2, align 8, !tbaa !14
  %3 = load ptr, ptr %2, align 8
  %4 = getelementptr inbounds nuw %class.btRigidBody, ptr %3, i32 0, i32 1
  ret ptr %4
}

; Function Attrs: mustprogress nounwind uwtable
define linkonce_odr dso_local noundef nonnull align 4 dereferenceable(64) ptr @_ZNK11btRigidBody24getCenterOfMassTransformEv(ptr noundef nonnull align 8 dereferenceable(744) %0) #1 comdat align 2 {
  %2 = alloca ptr, align 8
  store ptr %0, ptr %2, align 8, !tbaa !14
  %3 = load ptr, ptr %2, align 8
  %4 = getelementptr inbounds nuw %class.btCollisionObject, ptr %3, i32 0, i32 1
  ret ptr %4
}

; Function Attrs: mustprogress uwtable
define dso_local void @_ZN21btConeTwistConstraint8getInfo1EPN17btTypedConstraint17btConstraintInfo1E(ptr noundef nonnull align 8 dereferenceable(632) %0, ptr noundef %1) unnamed_addr #2 align 2 {
  %3 = alloca ptr, align 8
  %4 = alloca ptr, align 8
  store ptr %0, ptr %3, align 8, !tbaa !12
  store ptr %1, ptr %4, align 8, !tbaa !59
  %5 = load ptr, ptr %3, align 8
  %6 = getelementptr inbounds nuw %class.btConeTwistConstraint, ptr %5, i32 0, i32 25
  %7 = load i8, ptr %6, align 1, !tbaa !32, !range !61, !noundef !62
  %8 = trunc i8 %7 to i1
  br i1 %8, label %9, label %14

9:                                                ; preds = %2
  %10 = load ptr, ptr %4, align 8, !tbaa !59
  %11 = getelementptr inbounds nuw %"struct.btTypedConstraint::btConstraintInfo1", ptr %10, i32 0, i32 0
  store i32 0, ptr %11, align 4, !tbaa !63
  %12 = load ptr, ptr %4, align 8, !tbaa !59
  %13 = getelementptr inbounds nuw %"struct.btTypedConstraint::btConstraintInfo1", ptr %12, i32 0, i32 1
  store i32 0, ptr %13, align 4, !tbaa !65
  br label %78

14:                                               ; preds = %2
  %15 = load ptr, ptr %4, align 8, !tbaa !59
  %16 = getelementptr inbounds nuw %"struct.btTypedConstraint::btConstraintInfo1", ptr %15, i32 0, i32 0
  store i32 3, ptr %16, align 4, !tbaa !63
  %17 = load ptr, ptr %4, align 8, !tbaa !59
  %18 = getelementptr inbounds nuw %"struct.btTypedConstraint::btConstraintInfo1", ptr %17, i32 0, i32 1
  store i32 3, ptr %18, align 4, !tbaa !65
  %19 = getelementptr inbounds nuw %class.btTypedConstraint, ptr %5, i32 0, i32 8
  %20 = load ptr, ptr %19, align 8, !tbaa !66
  %21 = call noundef nonnull align 4 dereferenceable(64) ptr @_ZNK11btRigidBody24getCenterOfMassTransformEv(ptr noundef nonnull align 8 dereferenceable(744) %20)
  %22 = getelementptr inbounds nuw %class.btTypedConstraint, ptr %5, i32 0, i32 9
  %23 = load ptr, ptr %22, align 8, !tbaa !67
  %24 = call noundef nonnull align 4 dereferenceable(64) ptr @_ZNK11btRigidBody24getCenterOfMassTransformEv(ptr noundef nonnull align 8 dereferenceable(744) %23)
  %25 = getelementptr inbounds nuw %class.btTypedConstraint, ptr %5, i32 0, i32 8
  %26 = load ptr, ptr %25, align 8, !tbaa !66
  %27 = call noundef nonnull align 4 dereferenceable(48) ptr @_ZNK11btRigidBody24getInvInertiaTensorWorldEv(ptr noundef nonnull align 8 dereferenceable(744) %26)
  %28 = getelementptr inbounds nuw %class.btTypedConstraint, ptr %5, i32 0, i32 9
  %29 = load ptr, ptr %28, align 8, !tbaa !67
  %30 = call noundef nonnull align 4 dereferenceable(48) ptr @_ZNK11btRigidBody24getInvInertiaTensorWorldEv(ptr noundef nonnull align 8 dereferenceable(744) %29)
  call void @_ZN21btConeTwistConstraint14calcAngleInfo2ERK11btTransformS2_RK11btMatrix3x3S5_(ptr noundef nonnull align 8 dereferenceable(632) %5, ptr noundef nonnull align 4 dereferenceable(64) %21, ptr noundef nonnull align 4 dereferenceable(64) %24, ptr noundef nonnull align 4 dereferenceable(48) %27, ptr noundef nonnull align 4 dereferenceable(48) %30)
  %31 = getelementptr inbounds nuw %class.btConeTwistConstraint, ptr %5, i32 0, i32 24
  %32 = load i8, ptr %31, align 2, !tbaa !41, !range !61, !noundef !62
  %33 = trunc i8 %32 to i1
  br i1 %33, label %34, label %64

34:                                               ; preds = %14
  %35 = load ptr, ptr %4, align 8, !tbaa !59
  %36 = getelementptr inbounds nuw %"struct.btTypedConstraint::btConstraintInfo1", ptr %35, i32 0, i32 0
  %37 = load i32, ptr %36, align 4, !tbaa !63
  %38 = add nsw i32 %37, 1
  store i32 %38, ptr %36, align 4, !tbaa !63
  %39 = load ptr, ptr %4, align 8, !tbaa !59
  %40 = getelementptr inbounds nuw %"struct.btTypedConstraint::btConstraintInfo1", ptr %39, i32 0, i32 1
  %41 = load i32, ptr %40, align 4, !tbaa !65
  %42 = add nsw i32 %41, -1
  store i32 %42, ptr %40, align 4, !tbaa !65
  %43 = getelementptr inbounds nuw %class.btConeTwistConstraint, ptr %5, i32 0, i32 8
  %44 = load float, ptr %43, align 4, !tbaa !53
  %45 = getelementptr inbounds nuw %class.btConeTwistConstraint, ptr %5, i32 0, i32 11
  %46 = load float, ptr %45, align 8, !tbaa !45
  %47 = fcmp olt float %44, %46
  br i1 %47, label %48, label %63

48:                                               ; preds = %34
  %49 = getelementptr inbounds nuw %class.btConeTwistConstraint, ptr %5, i32 0, i32 9
  %50 = load float, ptr %49, align 8, !tbaa !54
  %51 = getelementptr inbounds nuw %class.btConeTwistConstraint, ptr %5, i32 0, i32 11
  %52 = load float, ptr %51, align 8, !tbaa !45
  %53 = fcmp olt float %50, %52
  br i1 %53, label %54, label %63

54:                                               ; preds = %48
  %55 = load ptr, ptr %4, align 8, !tbaa !59
  %56 = getelementptr inbounds nuw %"struct.btTypedConstraint::btConstraintInfo1", ptr %55, i32 0, i32 0
  %57 = load i32, ptr %56, align 4, !tbaa !63
  %58 = add nsw i32 %57, 1
  store i32 %58, ptr %56, align 4, !tbaa !63
  %59 = load ptr, ptr %4, align 8, !tbaa !59
  %60 = getelementptr inbounds nuw %"struct.btTypedConstraint::btConstraintInfo1", ptr %59, i32 0, i32 1
  %61 = load i32, ptr %60, align 4, !tbaa !65
  %62 = add nsw i32 %61, -1
  store i32 %62, ptr %60, align 4, !tbaa !65
  br label %63

63:                                               ; preds = %54, %48, %34
  br label %64

64:                                               ; preds = %63, %14
  %65 = getelementptr inbounds nuw %class.btConeTwistConstraint, ptr %5, i32 0, i32 23
  %66 = load i8, ptr %65, align 1, !tbaa !40, !range !61, !noundef !62
  %67 = trunc i8 %66 to i1
  br i1 %67, label %68, label %77

68:                                               ; preds = %64
  %69 = load ptr, ptr %4, align 8, !tbaa !59
  %70 = getelementptr inbounds nuw %"struct.btTypedConstraint::btConstraintInfo1", ptr %69, i32 0, i32 0
  %71 = load i32, ptr %70, align 4, !tbaa !63
  %72 = add nsw i32 %71, 1
  store i32 %72, ptr %70, align 4, !tbaa !63
  %73 = load ptr, ptr %4, align 8, !tbaa !59
  %74 = getelementptr inbounds nuw %"struct.btTypedConstraint::btConstraintInfo1", ptr %73, i32 0, i32 1
  %75 = load i32, ptr %74, align 4, !tbaa !65
  %76 = add nsw i32 %75, -1
  store i32 %76, ptr %74, align 4, !tbaa !65
  br label %77

77:                                               ; preds = %68, %64
  br label %78

78:                                               ; preds = %77, %9
  ret void
}