; Function Attrs: mustprogress uwtable
define dso_local void @_ZN21btConeTwistConstraint8getInfo1EPN17btTypedConstraint17btConstraintInfo1E(ptr noundef nonnull align 8 dereferenceable(632) %0, ptr noundef captures(none) initializes((0, 8)) %1) unnamed_addr #0 align 2 {
  %3 = getelementptr inbounds nuw i8, ptr %0, i64 551
  %4 = load i8, ptr %3, align 1, !tbaa !41, !range !42, !noundef !43
  %5 = trunc nuw i8 %4 to i1
  %6 = getelementptr inbounds nuw i8, ptr %1, i64 4
  br i1 %5, label %7, label %8

7:                                                ; preds = %2
  store i32 0, ptr %1, align 4, !tbaa !44
  br label %.sink.split

8:                                                ; preds = %2
  store i32 3, ptr %1, align 4, !tbaa !44
  store i32 3, ptr %6, align 4, !tbaa !46
  %9 = getelementptr inbounds nuw i8, ptr %0, i64 40
  %10 = load ptr, ptr %9, align 8, !tbaa !47
  %11 = getelementptr inbounds nuw i8, ptr %10, i64 8
  %12 = getelementptr inbounds nuw i8, ptr %0, i64 48
  %13 = load ptr, ptr %12, align 8, !tbaa !48
  %14 = getelementptr inbounds nuw i8, ptr %13, i64 8
  %15 = getelementptr inbounds nuw i8, ptr %10, i64 372
  %16 = getelementptr inbounds nuw i8, ptr %13, i64 372
  tail call void @_ZN21btConeTwistConstraint14calcAngleInfo2ERK11btTransformS2_RK11btMatrix3x3S5_(ptr noundef nonnull align 8 dereferenceable(632) %0, ptr noundef nonnull align 4 dereferenceable(64) %11, ptr noundef nonnull align 4 dereferenceable(64) %14, ptr noundef nonnull align 4 dereferenceable(48) %15, ptr noundef nonnull align 4 dereferenceable(48) %16)
  %17 = getelementptr inbounds nuw i8, ptr %0, i64 550
  %18 = load i8, ptr %17, align 2, !tbaa !40, !range !42, !noundef !43
  %19 = trunc nuw i8 %18 to i1
  br i1 %19, label %20, label %36

20:                                               ; preds = %8
  %21 = load i32, ptr %1, align 4, !tbaa !44
  %22 = add nsw i32 %21, 1
  store i32 %22, ptr %1, align 4, !tbaa !44
  %23 = load i32, ptr %6, align 4, !tbaa !46
  %24 = add nsw i32 %23, -1
  store i32 %24, ptr %6, align 4, !tbaa !46
  %25 = getelementptr inbounds nuw i8, ptr %0, i64 468
  %26 = load float, ptr %25, align 4, !tbaa !26
  %27 = getelementptr inbounds nuw i8, ptr %0, i64 480
  %28 = load float, ptr %27, align 8, !tbaa !33
  %29 = fcmp olt float %26, %28
  %30 = getelementptr inbounds nuw i8, ptr %0, i64 472
  %31 = load float, ptr %30, align 8
  %32 = fcmp olt float %31, %28
  %or.cond = select i1 %29, i1 %32, i1 false
  br i1 %or.cond, label %33, label %36

33:                                               ; preds = %20
  %34 = add nsw i32 %21, 2
  store i32 %34, ptr %1, align 4, !tbaa !44
  %35 = add nsw i32 %23, -2
  store i32 %35, ptr %6, align 4, !tbaa !46
  br label %36

36:                                               ; preds = %20, %33, %8
  %37 = getelementptr inbounds nuw i8, ptr %0, i64 549
  %38 = load i8, ptr %37, align 1, !tbaa !39, !range !42, !noundef !43
  %39 = trunc nuw i8 %38 to i1
  br i1 %39, label %40, label %45

40:                                               ; preds = %36
  %41 = load i32, ptr %1, align 4, !tbaa !44
  %42 = add nsw i32 %41, 1
  store i32 %42, ptr %1, align 4, !tbaa !44
  %43 = load i32, ptr %6, align 4, !tbaa !46
  %44 = add nsw i32 %43, -1
  br label %.sink.split

.sink.split:                                      ; preds = %7, %40
  %.sink = phi i32 [ %44, %40 ], [ 0, %7 ]
  store i32 %.sink, ptr %6, align 4, !tbaa !46
  br label %45

45:                                               ; preds = %.sink.split, %36
  ret void
}